target datalayout = "e-m:e-p270:32:32-p271:32:32-p272:64:64-i64:64-i128:128-f80:128-n8:16:32:64-S128"
target triple = "x86_64-pc-linux-gnu"

%struct.commit_graph_data = type { i32, i64 }
%struct.object_id = type { [32 x i8], i32 }
%struct.commit = type { %struct.object, i64, ptr, ptr, i32 }
%struct.object = type { i32, %struct.object_id }
%struct.packed_commit_list = type { ptr, i64, i64 }
%struct.write_commit_graph_context = type { ptr, ptr, ptr, %struct.oid_array, %struct.packed_commit_list, i32, i32, i64, ptr, i32, i64, ptr, i32, i32, ptr, ptr, ptr, i32, ptr, i8, ptr, ptr, i64, ptr, i32, i32, i32, i32, i32 }
%struct.oid_array = type { ptr, i64, i64, i32 }

; Function Attrs: inlinehint nounwind uwtable
define internal i32 @default_swab32(i32 noundef %0) #5 {
  %2 = alloca i32, align 4
  store i32 %0, ptr %2, align 4, !tbaa !4
  %3 = load i32, ptr %2, align 4, !tbaa !4
  %4 = and i32 %3, -16777216
  %5 = lshr i32 %4, 24
  %6 = load i32, ptr %2, align 4, !tbaa !4
  %7 = and i32 %6, 16711680
  %8 = lshr i32 %7, 8
  %9 = or i32 %5, %8
  %10 = load i32, ptr %2, align 4, !tbaa !4
  %11 = and i32 %10, 65280
  %12 = shl i32 %11, 8
  %13 = or i32 %9, %12
  %14 = load i32, ptr %2, align 4, !tbaa !4
  %15 = and i32 %14, 255
  %16 = shl i32 %15, 24
  %17 = or i32 %13, %16
  ret i32 %17
}

; Function Attrs: inlinehint nounwind uwtable
define internal i32 @git_bswap32(i32 noundef %0) #5 {
  %2 = alloca i32, align 4
  %3 = alloca i32, align 4
  store i32 %0, ptr %2, align 4, !tbaa !4
  call void @llvm.lifetime.start.p0(i64 4, ptr %3) #12
  %4 = load i32, ptr %2, align 4, !tbaa !4
  %5 = call i1 @llvm.is.constant.i32(i32 %4)
  br i1 %5, label %6, label %9

6:                                                ; preds = %1
  %7 = load i32, ptr %2, align 4, !tbaa !4
  %8 = call i32 @default_swab32(i32 noundef %7)
  store i32 %8, ptr %3, align 4, !tbaa !4
  br label %12

9:                                                ; preds = %1
  %10 = load i32, ptr %2, align 4, !tbaa !4
  %11 = call i32 asm "bswap $0", "=r,0,~{dirflag},~{fpsr},~{flags}"(i32 %10) #16, !srcloc !315
  store i32 %11, ptr %3, align 4, !tbaa !4
  br label %12

12:                                               ; preds = %9, %6
  %13 = load i32, ptr %3, align 4, !tbaa !4
  call void @llvm.lifetime.end.p0(i64 4, ptr %3) #12
  ret i32 %13
}

; Function Attrs: inlinehint nounwind uwtable
define internal void @hashwrite_be32(ptr noundef %0, i32 noundef %1) #5 {
  %3 = alloca ptr, align 8
  %4 = alloca i32, align 4
  store ptr %0, ptr %3, align 8, !tbaa !282
  store i32 %1, ptr %4, align 4, !tbaa !4
  %5 = load i32, ptr %4, align 4, !tbaa !4
  %6 = call i32 @git_bswap32(i32 noundef %5)
  store i32 %6, ptr %4, align 4, !tbaa !4
  %7 = load ptr, ptr %3, align 8, !tbaa !282
  call void @hashwrite(ptr noundef %7, ptr noundef %4, i32 noundef 4)
  ret void
}

; Function Attrs: inlinehint nounwind uwtable
define internal i32 @repo_parse_commit(ptr noundef %0, ptr noundef %1) #5 {
  %3 = alloca ptr, align 8
  %4 = alloca ptr, align 8
  store ptr %0, ptr %3, align 8, !tbaa !8
  store ptr %1, ptr %4, align 8, !tbaa !52
  %5 = load ptr, ptr %3, align 8, !tbaa !8
  %6 = load ptr, ptr %4, align 8, !tbaa !52
  %7 = call i32 @repo_parse_commit_gently(ptr noundef %5, ptr noundef %6, i32 noundef 0)
  ret i32 %7
}

; Function Attrs: nounwind uwtable
define internal i32 @write_graph_chunk_generation_data(ptr noundef %0, ptr noundef %1) #0 {
  %3 = alloca ptr, align 8
  %4 = alloca ptr, align 8
  %5 = alloca ptr, align 8
  %6 = alloca i32, align 4
  %7 = alloca i32, align 4
  %8 = alloca ptr, align 8
  %9 = alloca i64, align 8
  store ptr %0, ptr %3, align 8, !tbaa !282
  store ptr %1, ptr %4, align 8, !tbaa !78
  call void @llvm.lifetime.start.p0(i64 8, ptr %5) #12
  %10 = load ptr, ptr %4, align 8, !tbaa !78
  store ptr %10, ptr %5, align 8, !tbaa !197
  call void @llvm.lifetime.start.p0(i64 4, ptr %6) #12
  call void @llvm.lifetime.start.p0(i64 4, ptr %7) #12
  store i32 0, ptr %7, align 4, !tbaa !4
  store i32 0, ptr %6, align 4, !tbaa !4
  br label %11

11:                                               ; preds = %60, %2
  %12 = load i32, ptr %6, align 4, !tbaa !4
  %13 = sext i32 %12 to i64
  %14 = load ptr, ptr %5, align 8, !tbaa !197
  %15 = getelementptr inbounds nuw %struct.write_commit_graph_context, ptr %14, i32 0, i32 4
  %16 = getelementptr inbounds nuw %struct.packed_commit_list, ptr %15, i32 0, i32 1
  %17 = load i64, ptr %16, align 8, !tbaa !218
  %18 = icmp ult i64 %13, %17
  br i1 %18, label %19, label %63

19:                                               ; preds = %11
  call void @llvm.lifetime.start.p0(i64 8, ptr %8) #12
  %20 = load ptr, ptr %5, align 8, !tbaa !197
  %21 = getelementptr inbounds nuw %struct.write_commit_graph_context, ptr %20, i32 0, i32 4
  %22 = getelementptr inbounds nuw %struct.packed_commit_list, ptr %21, i32 0, i32 0
  %23 = load ptr, ptr %22, align 8, !tbaa !222
  %24 = load i32, ptr %6, align 4, !tbaa !4
  %25 = sext i32 %24 to i64
  %26 = getelementptr inbounds ptr, ptr %23, i64 %25
  %27 = load ptr, ptr %26, align 8, !tbaa !52
  store ptr %27, ptr %8, align 8, !tbaa !52
  call void @llvm.lifetime.start.p0(i64 8, ptr %9) #12
  %28 = load ptr, ptr %5, align 8, !tbaa !197
  %29 = getelementptr inbounds nuw %struct.write_commit_graph_context, ptr %28, i32 0, i32 0
  %30 = load ptr, ptr %29, align 8, !tbaa !199
  %31 = load ptr, ptr %8, align 8, !tbaa !52
  %32 = call i32 @repo_parse_commit(ptr noundef %30, ptr noundef %31)
  %33 = load ptr, ptr %8, align 8, !tbaa !52
  %34 = call ptr @commit_graph_data_at(ptr noundef %33)
  %35 = getelementptr inbounds nuw %struct.commit_graph_data, ptr %34, i32 0, i32 1
  %36 = load i64, ptr %35, align 8, !tbaa !60
  %37 = load ptr, ptr %8, align 8, !tbaa !52
  %38 = getelementptr inbounds nuw %struct.commit, ptr %37, i32 0, i32 1
  %39 = load i64, ptr %38, align 8, !tbaa !160
  %40 = sub i64 %36, %39
  store i64 %40, ptr %9, align 8, !tbaa !73
  %41 = load ptr, ptr %5, align 8, !tbaa !197
  %42 = getelementptr inbounds nuw %struct.write_commit_graph_context, ptr %41, i32 0, i32 8
  %43 = load ptr, ptr %42, align 8, !tbaa !242
  %44 = load ptr, ptr %5, align 8, !tbaa !197
  %45 = getelementptr inbounds nuw %struct.write_commit_graph_context, ptr %44, i32 0, i32 10
  %46 = load i64, ptr %45, align 8, !tbaa !365
  %47 = add i64 %46, 1
  store i64 %47, ptr %45, align 8, !tbaa !365
  call void @display_progress(ptr noundef %43, i64 noundef %47)
  %48 = load i64, ptr %9, align 8, !tbaa !73
  %49 = icmp ugt i64 %48, 2147483647
  br i1 %49, label %50, label %56

50:                                               ; preds = %19
  %51 = load i32, ptr %7, align 4, !tbaa !4
  %52 = sext i32 %51 to i64
  %53 = or i64 2147483648, %52
  store i64 %53, ptr %9, align 8, !tbaa !73
  %54 = load i32, ptr %7, align 4, !tbaa !4
  %55 = add nsw i32 %54, 1
  store i32 %55, ptr %7, align 4, !tbaa !4
  br label %56

56:                                               ; preds = %50, %19
  %57 = load ptr, ptr %3, align 8, !tbaa !282
  %58 = load i64, ptr %9, align 8, !tbaa !73
  %59 = trunc i64 %58 to i32
  call void @hashwrite_be32(ptr noundef %57, i32 noundef %59)
  call void @llvm.lifetime.end.p0(i64 8, ptr %9) #12
  call void @llvm.lifetime.end.p0(i64 8, ptr %8) #12
  br label %60

60:                                               ; preds = %56
  %61 = load i32, ptr %6, align 4, !tbaa !4
  %62 = add nsw i32 %61, 1
  store i32 %62, ptr %6, align 4, !tbaa !4
  br label %11, !llvm.loop !371

63:                                               ; preds = %11
  call void @llvm.lifetime.end.p0(i64 4, ptr %7) #12
  call void @llvm.lifetime.end.p0(i64 4, ptr %6) #12
  call void @llvm.lifetime.end.p0(i64 8, ptr %5) #12
  ret i32 0
}