; Function Attrs: nounwind uwtable
define internal noundef i32 @write_graph_chunk_generation_data(ptr noundef %0, ptr noundef captures(none) %1) #0 {
  %3 = alloca i32, align 4
  %4 = getelementptr inbounds nuw i8, ptr %1, i64 64
  %5 = load i64, ptr %4, align 8, !tbaa !222
  %.not = icmp eq i64 %5, 0
  br i1 %.not, label %._crit_edge, label %.lr.ph

.lr.ph:                                           ; preds = %2
  %6 = getelementptr inbounds nuw i8, ptr %1, i64 56
  %7 = getelementptr inbounds nuw i8, ptr %1, i64 96
  %8 = getelementptr inbounds nuw i8, ptr %1, i64 112
  br label %hashwrite_be32.exit

hashwrite_be32.exit:                              ; preds = %.lr.ph, %hashwrite_be32.exit
  %indvars.iv = phi i64 [ 0, %.lr.ph ], [ %indvars.iv.next, %hashwrite_be32.exit ]
  %.01720 = phi i32 [ 0, %.lr.ph ], [ %.1, %hashwrite_be32.exit ]
  %9 = load ptr, ptr %6, align 8, !tbaa !224
  %10 = getelementptr inbounds nuw ptr, ptr %9, i64 %indvars.iv
  %11 = load ptr, ptr %10, align 8, !tbaa !165
  %12 = load ptr, ptr %1, align 8, !tbaa !178
  %13 = call i32 @repo_parse_commit_gently(ptr noundef %12, ptr noundef %11, i32 noundef 0) #24
  %14 = getelementptr i8, ptr %11, i64 64
  %.val = load i32, ptr %14, align 8, !tbaa !49
  %15 = call fastcc ptr @commit_graph_data_at(i32 %.val)
  %16 = getelementptr inbounds nuw i8, ptr %15, i64 8
  %17 = load i64, ptr %16, align 8, !tbaa !63
  %18 = getelementptr inbounds nuw i8, ptr %11, i64 40
  %19 = load i64, ptr %18, align 8, !tbaa !139
  %20 = sub i64 %17, %19
  %21 = load ptr, ptr %7, align 8, !tbaa !203
  %22 = load i64, ptr %8, align 8, !tbaa !303
  %23 = add i64 %22, 1
  store i64 %23, ptr %8, align 8, !tbaa !303
  call void @display_progress(ptr noundef %21, i64 noundef %23) #24
  %24 = icmp ugt i64 %20, 2147483647
  %25 = zext i1 %24 to i32
  %.1 = add nuw nsw i32 %.01720, %25
  call void @llvm.lifetime.start.p0(i64 4, ptr nonnull %3)
  %26 = or disjoint i32 %.01720, -2147483648
  %27 = trunc i64 %20 to i32
  %28 = select i1 %24, i32 %26, i32 %27
  %29 = call i32 asm "bswap $0", "=r,0,~{dirflag},~{fpsr},~{flags}"(i32 %28) #26, !srcloc !96
  store i32 %29, ptr %3, align 4, !tbaa !47
  call void @hashwrite(ptr noundef %0, ptr noundef nonnull %3, i32 noundef 4) #24
  call void @llvm.lifetime.end.p0(i64 4, ptr nonnull %3)
  %indvars.iv.next = add nuw nsw i64 %indvars.iv, 1
  %30 = load i64, ptr %4, align 8, !tbaa !222
  %31 = icmp ugt i64 %30, %indvars.iv.next
  br i1 %31, label %hashwrite_be32.exit, label %._crit_edge, !llvm.loop !310

._crit_edge:                                      ; preds = %hashwrite_be32.exit, %2
  ret i32 0
}